(dp0
S'monitor'
p1
I1
sS'language'
p2
S'Esperanto'
p3
sS'dir_db'
p4
S'F:\\DATA_BASE'
p5
sS'converter_version'
p6
I1
sS'logic'
p7
I1
sS'test'
p8
I1
sS'convert2IL'
p9
I1
sS'storage_version'
p10
I1
sS'history'
p11
I1
s.