(dp0
S'monitor'
p1
I01
sS'language'
p2
S'Esperanto'
p3
sS'dir_db'
p4
S'/home/konstantin/ManSPy/DATA_BASE'
p5
sS'assoc_version'
p6
I3
sS'logic'
p7
I01
sS'test'
p8
I01
sS'convert2IL'
p9
I01
sS'storage_version'
p10
I2
sS'history'
p11
I01
s.